target datalayout = "e-m:e-p270:32:32-p271:32:32-p272:64:64-i64:64-i128:128-f80:128-n8:16:32:64-S128"
target triple = "x86_64-pc-linux-gnu"

%struct.ssl_connection_st = type { %struct.ssl_st, ptr, i32, ptr, ptr, ptr, i32, ptr, i32, i32, i32, i32, %struct.OSSL_TIME, %struct.OSSL_TIME, %struct.ossl_statem_st, i32, ptr, ptr, i64, i64, i64, %struct.ossl_quic_tls_callbacks_st, ptr, ptr, %struct.anon, ptr, ptr, ptr, i32, ptr, %struct.ssl_dane_st, ptr, ptr, ptr, ptr, i32, [64 x i8], [64 x i8], [64 x i8], [64 x i8], [64 x i8], [64 x i8], [64 x i8], [64 x i8], [64 x i8], [64 x i8], [64 x i8], [64 x i8], ptr, [64 x i8], i64, i32, i64, [32 x i8], ptr, ptr, ptr, i64, ptr, [32 x i8], i64, i32, ptr, ptr, i32, i32, ptr, ptr, ptr, ptr, ptr, i64, ptr, ptr, i64, i32, i32, i32, i64, i32, i32, i64, i64, i64, %struct.anon.1, ptr, i32, ptr, ptr, ptr, i32, ptr, ptr, ptr, i32, i32, i32, i32, ptr, i64, i32, ptr, %struct.srp_ctx_st, ptr, %struct.record_layer_st, ptr, ptr, ptr, ptr, i64, i32, i32, i32, i64, i64, i64, ptr, ptr, ptr, ptr, ptr, i64, ptr, i64, ptr, i64 }
%struct.ssl_st = type { i32, ptr, ptr, ptr, %struct.CRYPTO_REF_COUNT, ptr, %struct.crypto_ex_data_st }
%struct.CRYPTO_REF_COUNT = type { i32 }
%struct.crypto_ex_data_st = type { ptr, ptr }
%struct.OSSL_TIME = type { i64 }
%struct.ossl_statem_st = type { i32, i32, i32, i32, i32, i32, i32, i32, i32, i32, i32, i32, i32, ptr, ptr, ptr, i8 }
%struct.ossl_quic_tls_callbacks_st = type { ptr, ptr, ptr, ptr, ptr, ptr }
%struct.anon = type { i64, [32 x i8], [32 x i8], ptr, ptr, i32, i32, i32, i32, [2 x i8], i32, i32, i32, i32, %struct.anon.0, [64 x i8], i64, [64 x i8], i64, i32, i32, ptr, i64, ptr, i64, i32, i8, i8, i16, ptr, i16 }
%struct.anon.0 = type { [128 x i8], i64, [128 x i8], i64, i64, i32, ptr, ptr, [4 x ptr], [4 x i16], i64, i32, ptr, i64, ptr, i64, ptr, ptr, ptr, i32, i64, ptr, i32, ptr, i64, ptr, i64, ptr, i64, ptr, ptr, ptr, ptr, i64, i64, ptr, ptr, i32, i32, i32, i32 }
%struct.ssl_dane_st = type { ptr, ptr, ptr, ptr, ptr, i32, i32, i32, i64 }
%struct.anon.1 = type { [29 x i8], ptr, ptr, ptr, i32, ptr, i16, i32, %struct.anon.2, i32, i32, i64, ptr, i64, ptr, i64, ptr, i64, ptr, i64, ptr, i64, ptr, ptr, ptr, ptr, ptr, ptr, ptr, i64, ptr, i64, i32, i32, i32, i32, ptr, i64, i32, i8, i32, [4 x i32], i32, i8, i8, i8, i8 }
%struct.anon.2 = type { ptr, ptr, ptr, i64 }
%struct.srp_ctx_st = type { ptr, ptr, ptr, ptr, ptr, ptr, ptr, ptr, ptr, ptr, ptr, ptr, ptr, ptr, i32, i64 }
%struct.record_layer_st = type { ptr, ptr, ptr, ptr, ptr, ptr, ptr, ptr, i64, i32, i64, [4 x i8], i64, i64, i8, ptr, i32, ptr, ptr, ptr, i64, i64, i64, i64, [32 x %struct.tls_record_st] }
%struct.tls_record_st = type { ptr, i32, i8, ptr, ptr, i64, i64, i16, [8 x i8] }

; Function Attrs: nounwind uwtable
define i32 @ssl3_renegotiate(ptr noundef %0) #0 {
  %2 = alloca i32, align 4
  %3 = alloca ptr, align 8
  %4 = alloca ptr, align 8
  %5 = alloca i32, align 4
  store ptr %0, ptr %3, align 8, !tbaa !23
  call void @llvm.lifetime.start.p0(i64 8, ptr %4) #10
  %6 = load ptr, ptr %3, align 8, !tbaa !23
  %7 = icmp eq ptr %6, null
  br i1 %7, label %8, label %9

8:                                                ; preds = %1
  br label %19

9:                                                ; preds = %1
  %10 = load ptr, ptr %3, align 8, !tbaa !23
  %11 = getelementptr inbounds nuw %struct.ssl_st, ptr %10, i32 0, i32 0
  %12 = load i32, ptr %11, align 8, !tbaa !25
  %13 = icmp eq i32 %12, 0
  br i1 %13, label %14, label %16

14:                                               ; preds = %9
  %15 = load ptr, ptr %3, align 8, !tbaa !23
  br label %17

16:                                               ; preds = %9
  br label %17

17:                                               ; preds = %16, %14
  %18 = phi ptr [ %15, %14 ], [ null, %16 ]
  br label %19

19:                                               ; preds = %17, %8
  %20 = phi ptr [ null, %8 ], [ %18, %17 ]
  store ptr %20, ptr %4, align 8, !tbaa !13
  %21 = load ptr, ptr %4, align 8, !tbaa !13
  %22 = icmp eq ptr %21, null
  br i1 %22, label %23, label %24

23:                                               ; preds = %19
  store i32 0, ptr %2, align 4
  store i32 1, ptr %5, align 4
  br label %34

24:                                               ; preds = %19
  %25 = load ptr, ptr %4, align 8, !tbaa !13
  %26 = getelementptr inbounds nuw %struct.ssl_connection_st, ptr %25, i32 0, i32 7
  %27 = load ptr, ptr %26, align 8, !tbaa !255
  %28 = icmp eq ptr %27, null
  br i1 %28, label %29, label %30

29:                                               ; preds = %24
  store i32 1, ptr %2, align 4
  store i32 1, ptr %5, align 4
  br label %34

30:                                               ; preds = %24
  %31 = load ptr, ptr %4, align 8, !tbaa !13
  %32 = getelementptr inbounds nuw %struct.ssl_connection_st, ptr %31, i32 0, i32 24
  %33 = getelementptr inbounds nuw %struct.anon, ptr %32, i32 0, i32 10
  store i32 1, ptr %33, align 4, !tbaa !252
  store i32 1, ptr %2, align 4
  store i32 1, ptr %5, align 4
  br label %34

34:                                               ; preds = %30, %29, %23
  call void @llvm.lifetime.end.p0(i64 8, ptr %4) #10
  %35 = load i32, ptr %2, align 4
  ret i32 %35
}