; Function Attrs: mustprogress nofree norecurse nosync nounwind willreturn memory(argmem: readwrite) uwtable
define range(i32 0, 2) i32 @ssl3_renegotiate(ptr noundef captures(address_is_null) %0) local_unnamed_addr #14 {
  %2 = icmp eq ptr %0, null
  br i1 %2, label %.thread, label %3

3:                                                ; preds = %1
  %4 = load i32, ptr %0, align 8, !tbaa !10
  %5 = icmp eq i32 %4, 0
  br i1 %5, label %6, label %.thread

6:                                                ; preds = %3
  %7 = getelementptr inbounds nuw i8, ptr %0, i64 112
  %8 = load ptr, ptr %7, align 8, !tbaa !233
  %9 = icmp eq ptr %8, null
  br i1 %9, label %.thread, label %10

10:                                               ; preds = %6
  %11 = getelementptr inbounds nuw i8, ptr %0, i64 460
  store i32 1, ptr %11, align 4, !tbaa !230
  br label %.thread

.thread:                                          ; preds = %1, %3, %6, %10
  %.0 = phi i32 [ 1, %10 ], [ 1, %6 ], [ 0, %3 ], [ 0, %1 ]
  ret i32 %.0
}